target datalayout = "e-m:e-p270:32:32-p271:32:32-p272:64:64-i64:64-i128:128-f80:128-n8:16:32:64-S128"
target triple = "x86_64-pc-linux-gnu"

%struct._zend_phpdbg_globals = type { [11 x %struct._zend_array], %struct._zend_array, %struct._zend_array, ptr, ptr, %struct.phpdbg_frame_t, i32, ptr, %struct.phpdbg_lexer_data, ptr, %struct.sigaction, i32, i64, %struct.phpdbg_btree, %struct.phpdbg_btree, %struct._zend_array, %struct._zend_array, %struct._zend_array, %struct._zend_array, ptr, ptr, i8, ptr, ptr, ptr, i64, ptr, %struct._zval_struct, i32, i32, i8, i8, ptr, ptr, ptr, %struct._zend_array, ptr, ptr, ptr, [3 x %struct.anon.8], ptr, %struct.anon.9, i64, [2 x ptr], [3 x ptr], ptr, i8, ptr, ptr, [500 x i8], i32, %struct.phpdbg_signal_safe_mem, ptr, i64, ptr, i64 }
%struct.phpdbg_frame_t = type { i32, ptr, ptr }
%struct.phpdbg_lexer_data = type { i32, ptr, ptr, ptr, ptr, i32 }
%struct.sigaction = type { %union.anon.2, %struct.__sigset_t, i32, ptr }
%union.anon.2 = type { ptr }
%struct.__sigset_t = type { [16 x i64] }
%struct.phpdbg_btree = type { i64, i64, i8, ptr }
%struct._zval_struct = type { %union._zend_value, %union.anon.4, %union.anon.7 }
%union._zend_value = type { i64 }
%union.anon.4 = type { i32 }
%union.anon.7 = type { i32 }
%struct._zend_array = type { %struct._zend_refcounted_h, %union.anon.0, i32, %union.anon.1, i32, i32, i32, i32, i64, ptr }
%struct._zend_refcounted_h = type { i32, %union.anon }
%union.anon = type { i32 }
%union.anon.0 = type { i32 }
%union.anon.1 = type { ptr }
%struct.anon.8 = type { i32 }
%struct.anon.9 = type { i8, i32, i32, ptr, i32 }
%struct.phpdbg_signal_safe_mem = type { ptr, i8, ptr, ptr }
%struct._zend_op_array = type { i8, [3 x i8], i32, ptr, ptr, ptr, i32, i32, ptr, ptr, ptr, ptr, i32, i32, i32, i32, ptr, ptr, ptr, ptr, ptr, i32, i32, ptr, ptr, ptr, i32, i32, i32, i32, ptr, ptr, [6 x ptr] }
%struct._Bucket = type { %struct._zval_struct, i64, ptr }
%struct._phpdbg_breakopline_t = type { i32, i8, i64, i8, ptr, i64, ptr, i64, i64, i64 }
%struct._phpdbg_breakline_t = type { i32, i8, i64, i8, ptr, i64, ptr }
%struct._zend_class_entry = type { i8, ptr, %union.anon.12, i32, i32, i32, i32, ptr, ptr, ptr, %struct._zend_array, %struct._zend_array, %struct._zend_array, ptr, ptr, ptr, ptr, ptr, ptr, ptr, ptr, ptr, ptr, ptr, ptr, ptr, ptr, ptr, ptr, ptr, ptr, ptr, %union.anon.13, ptr, ptr, ptr, ptr, i32, i32, %union.anon.14, ptr, ptr, ptr, ptr, i32, ptr, ptr, %union.anon.15 }
%union.anon.12 = type { ptr }
%union.anon.13 = type { ptr }
%union.anon.14 = type { ptr }
%union.anon.15 = type { %struct.anon.16 }
%struct.anon.16 = type { ptr, i32, i32 }

@phpdbg_globals = external global %struct._zend_phpdbg_globals, align 8
@.str = private unnamed_addr constant [1 x i8] zeroinitializer, align 1
@.str.30 = private unnamed_addr constant [52 x i8] c"Breakpoint #%d resolved at %s%s%s#%lu (opline #%lu)\00", align 1
@.str.31 = private unnamed_addr constant [3 x i8] c"::\00", align 1

; Function Attrs: nounwind uwtable
define void @phpdbg_resolve_op_array_breaks(ptr noundef %0) #0 {
  %2 = alloca ptr, align 8
  %3 = alloca ptr, align 8
  %4 = alloca ptr, align 8
  %5 = alloca ptr, align 8
  %6 = alloca ptr, align 8
  %7 = alloca ptr, align 8
  %8 = alloca ptr, align 8
  %9 = alloca ptr, align 8
  %10 = alloca ptr, align 8
  %11 = alloca ptr, align 8
  %12 = alloca ptr, align 8
  %13 = alloca ptr, align 8
  %14 = alloca ptr, align 8
  %15 = alloca ptr, align 8
  %16 = alloca ptr, align 8
  %17 = alloca ptr, align 8
  %18 = alloca ptr, align 8
  %19 = alloca ptr, align 8
  %20 = alloca ptr, align 8
  %21 = alloca ptr, align 8
  %22 = alloca ptr, align 8
  %23 = alloca ptr, align 8
  %24 = alloca ptr, align 8
  %25 = alloca ptr, align 8
  %26 = alloca ptr, align 8
  %27 = alloca ptr, align 8
  %28 = alloca ptr, align 8
  store ptr %0, ptr %20, align 8
  store ptr getelementptr inbounds ([11 x %struct._zend_array], ptr @phpdbg_globals, i64 0, i64 7), ptr %21, align 8
  %29 = load ptr, ptr %20, align 8
  %30 = getelementptr inbounds %struct._zend_op_array, ptr %29, i32 0, i32 4
  %31 = load ptr, ptr %30, align 8
  %32 = icmp ne ptr %31, null
  br i1 %32, label %33, label %55

33:                                               ; preds = %1
  %34 = load ptr, ptr %20, align 8
  %35 = getelementptr inbounds %struct._zend_op_array, ptr %34, i32 0, i32 4
  %36 = load ptr, ptr %35, align 8
  %37 = getelementptr inbounds %struct._zend_class_entry, ptr %36, i32 0, i32 1
  %38 = load ptr, ptr %37, align 8
  store ptr getelementptr inbounds ([11 x %struct._zend_array], ptr @phpdbg_globals, i64 0, i64 8), ptr %8, align 8
  store ptr %38, ptr %9, align 8
  %39 = load ptr, ptr %8, align 8
  %40 = load ptr, ptr %9, align 8
  %41 = call ptr @zend_hash_find(ptr noundef %39, ptr noundef %40) #11
  store ptr %41, ptr %10, align 8
  %42 = load ptr, ptr %10, align 8
  %43 = icmp ne ptr %42, null
  br i1 %43, label %44, label %50

44:                                               ; preds = %33
  %45 = load ptr, ptr %10, align 8
  %46 = load ptr, ptr %45, align 8
  %47 = icmp ne ptr %46, null
  call void @llvm.assume(i1 %47)
  %48 = load ptr, ptr %10, align 8
  %49 = load ptr, ptr %48, align 8
  store ptr %49, ptr %7, align 8
  br label %51

50:                                               ; preds = %33
  store ptr null, ptr %7, align 8
  br label %51

51:                                               ; preds = %50, %44
  %52 = load ptr, ptr %7, align 8
  store ptr %52, ptr %21, align 8
  %53 = icmp ne ptr %52, null
  br i1 %53, label %55, label %54

54:                                               ; preds = %51
  br label %224

55:                                               ; preds = %51, %1
  %56 = load ptr, ptr %20, align 8
  %57 = getelementptr inbounds %struct._zend_op_array, ptr %56, i32 0, i32 3
  %58 = load ptr, ptr %57, align 8
  %59 = icmp eq ptr %58, null
  br i1 %59, label %60, label %81

60:                                               ; preds = %55
  %61 = load ptr, ptr %20, align 8
  %62 = getelementptr inbounds %struct._zend_op_array, ptr %61, i32 0, i32 25
  %63 = load ptr, ptr %62, align 8
  store ptr getelementptr inbounds ([11 x %struct._zend_array], ptr @phpdbg_globals, i64 0, i64 9), ptr %12, align 8
  store ptr %63, ptr %13, align 8
  %64 = load ptr, ptr %12, align 8
  %65 = load ptr, ptr %13, align 8
  %66 = call ptr @zend_hash_find(ptr noundef %64, ptr noundef %65) #11
  store ptr %66, ptr %14, align 8
  %67 = load ptr, ptr %14, align 8
  %68 = icmp ne ptr %67, null
  br i1 %68, label %69, label %75

69:                                               ; preds = %60
  %70 = load ptr, ptr %14, align 8
  %71 = load ptr, ptr %70, align 8
  %72 = icmp ne ptr %71, null
  call void @llvm.assume(i1 %72)
  %73 = load ptr, ptr %14, align 8
  %74 = load ptr, ptr %73, align 8
  store ptr %74, ptr %11, align 8
  br label %76

75:                                               ; preds = %60
  store ptr null, ptr %11, align 8
  br label %76

76:                                               ; preds = %75, %69
  %77 = load ptr, ptr %11, align 8
  store ptr %77, ptr %22, align 8
  %78 = icmp ne ptr %77, null
  br i1 %78, label %80, label %79

79:                                               ; preds = %76
  br label %224

80:                                               ; preds = %76
  br label %108

81:                                               ; preds = %55
  %82 = load ptr, ptr %20, align 8
  %83 = getelementptr inbounds %struct._zend_op_array, ptr %82, i32 0, i32 3
  %84 = load ptr, ptr %83, align 8
  %85 = icmp ne ptr %84, null
  br i1 %85, label %86, label %106

86:                                               ; preds = %81
  %87 = load ptr, ptr %21, align 8
  %88 = load ptr, ptr %20, align 8
  %89 = getelementptr inbounds %struct._zend_op_array, ptr %88, i32 0, i32 3
  %90 = load ptr, ptr %89, align 8
  store ptr %87, ptr %16, align 8
  store ptr %90, ptr %17, align 8
  %91 = load ptr, ptr %16, align 8
  %92 = load ptr, ptr %17, align 8
  %93 = call ptr @zend_hash_find(ptr noundef %91, ptr noundef %92) #11
  store ptr %93, ptr %18, align 8
  %94 = load ptr, ptr %18, align 8
  %95 = icmp ne ptr %94, null
  br i1 %95, label %96, label %102

96:                                               ; preds = %86
  %97 = load ptr, ptr %18, align 8
  %98 = load ptr, ptr %97, align 8
  %99 = icmp ne ptr %98, null
  call void @llvm.assume(i1 %99)
  %100 = load ptr, ptr %18, align 8
  %101 = load ptr, ptr %100, align 8
  store ptr %101, ptr %15, align 8
  br label %103

102:                                              ; preds = %86
  store ptr null, ptr %15, align 8
  br label %103

103:                                              ; preds = %102, %96
  %104 = load ptr, ptr %15, align 8
  store ptr %104, ptr %22, align 8
  %105 = icmp ne ptr %104, null
  br i1 %105, label %107, label %106

106:                                              ; preds = %103, %81
  br label %224

107:                                              ; preds = %103
  br label %108

108:                                              ; preds = %107, %80
  br label %109

109:                                              ; preds = %108
  %110 = load ptr, ptr %22, align 8
  store ptr %110, ptr %24, align 8
  %111 = load ptr, ptr %24, align 8
  %112 = getelementptr inbounds %struct._zend_array, ptr %111, i32 0, i32 3
  %113 = load ptr, ptr %112, align 8
  %114 = getelementptr inbounds %struct._Bucket, ptr %113, i64 0
  store ptr %114, ptr %25, align 8
  %115 = load ptr, ptr %24, align 8
  %116 = getelementptr inbounds %struct._zend_array, ptr %115, i32 0, i32 3
  %117 = load ptr, ptr %116, align 8
  %118 = load ptr, ptr %24, align 8
  %119 = getelementptr inbounds %struct._zend_array, ptr %118, i32 0, i32 4
  %120 = load i32, ptr %119, align 8
  %121 = zext i32 %120 to i64
  %122 = getelementptr inbounds %struct._Bucket, ptr %117, i64 %121
  store ptr %122, ptr %26, align 8
  %123 = load ptr, ptr %24, align 8
  %124 = getelementptr inbounds %struct._zend_array, ptr %123, i32 0, i32 1
  %125 = load i32, ptr %124, align 8
  %126 = and i32 %125, 4
  %127 = icmp ne i32 %126, 0
  %128 = xor i1 %127, true
  call void @llvm.assume(i1 %128)
  br label %129

129:                                              ; preds = %220, %109
  %130 = load ptr, ptr %25, align 8
  %131 = load ptr, ptr %26, align 8
  %132 = icmp ne ptr %130, %131
  br i1 %132, label %133, label %223

133:                                              ; preds = %129
  %134 = load ptr, ptr %25, align 8
  %135 = getelementptr inbounds %struct._Bucket, ptr %134, i32 0, i32 0
  store ptr %135, ptr %27, align 8
  %136 = load ptr, ptr %27, align 8
  store ptr %136, ptr %19, align 8
  %137 = load ptr, ptr %19, align 8
  %138 = getelementptr inbounds %struct._zval_struct, ptr %137, i32 0, i32 1
  %139 = load i8, ptr %138, align 8
  %140 = zext i8 %139 to i32
  %141 = icmp eq i32 %140, 0
  %142 = xor i1 %141, true
  %143 = xor i1 %142, true
  %144 = zext i1 %143 to i32
  %145 = sext i32 %144 to i64
  %146 = icmp ne i64 %145, 0
  br i1 %146, label %147, label %148

147:                                              ; preds = %133
  br label %220

148:                                              ; preds = %133
  %149 = load ptr, ptr %27, align 8
  %150 = getelementptr inbounds %struct._zval_struct, ptr %149, i32 0, i32 0
  %151 = load ptr, ptr %150, align 8
  store ptr %151, ptr %23, align 8
  %152 = load ptr, ptr %23, align 8
  %153 = load ptr, ptr %20, align 8
  %154 = call i32 @phpdbg_resolve_op_array_break(ptr noundef %152, ptr noundef %153)
  %155 = icmp eq i32 %154, 0
  br i1 %155, label %156, label %219

156:                                              ; preds = %148
  store ptr getelementptr inbounds ([11 x %struct._zend_array], ptr @phpdbg_globals, i64 0, i64 3), ptr %6, align 8
  %157 = load ptr, ptr %6, align 8
  %158 = load ptr, ptr %6, align 8
  %159 = getelementptr inbounds %struct._zend_array, ptr %158, i32 0, i32 7
  call void @zend_hash_internal_pointer_end_ex(ptr noundef %157, ptr noundef %159) #11
  store ptr getelementptr inbounds ([11 x %struct._zend_array], ptr @phpdbg_globals, i64 0, i64 3), ptr %3, align 8
  store ptr getelementptr inbounds ([11 x %struct._zend_array], ptr @phpdbg_globals, i64 0, i64 3, i32 7), ptr %4, align 8
  %160 = load ptr, ptr %3, align 8
  %161 = load ptr, ptr %4, align 8
  %162 = call ptr @zend_hash_get_current_data_ex(ptr noundef %160, ptr noundef %161) #11
  store ptr %162, ptr %5, align 8
  %163 = load ptr, ptr %5, align 8
  %164 = icmp ne ptr %163, null
  br i1 %164, label %165, label %171

165:                                              ; preds = %156
  %166 = load ptr, ptr %5, align 8
  %167 = load ptr, ptr %166, align 8
  %168 = icmp ne ptr %167, null
  call void @llvm.assume(i1 %168)
  %169 = load ptr, ptr %5, align 8
  %170 = load ptr, ptr %169, align 8
  store ptr %170, ptr %2, align 8
  br label %172

171:                                              ; preds = %156
  store ptr null, ptr %2, align 8
  br label %172

172:                                              ; preds = %171, %165
  %173 = load ptr, ptr %2, align 8
  store ptr %173, ptr %28, align 8
  %174 = load i32, ptr getelementptr inbounds (%struct._zend_phpdbg_globals, ptr @phpdbg_globals, i32 0, i32 39, i64 1), align 4
  %175 = load ptr, ptr %28, align 8
  %176 = getelementptr inbounds %struct._phpdbg_breakline_t, ptr %175, i32 0, i32 0
  %177 = load i32, ptr %176, align 8
  %178 = load ptr, ptr %23, align 8
  %179 = getelementptr inbounds %struct._phpdbg_breakopline_t, ptr %178, i32 0, i32 6
  %180 = load ptr, ptr %179, align 8
  %181 = icmp ne ptr %180, null
  br i1 %181, label %182, label %186

182:                                              ; preds = %172
  %183 = load ptr, ptr %23, align 8
  %184 = getelementptr inbounds %struct._phpdbg_breakopline_t, ptr %183, i32 0, i32 6
  %185 = load ptr, ptr %184, align 8
  br label %187

186:                                              ; preds = %172
  br label %187

187:                                              ; preds = %186, %182
  %188 = phi ptr [ %185, %182 ], [ @.str, %186 ]
  %189 = load ptr, ptr %23, align 8
  %190 = getelementptr inbounds %struct._phpdbg_breakopline_t, ptr %189, i32 0, i32 6
  %191 = load ptr, ptr %190, align 8
  %192 = icmp ne ptr %191, null
  br i1 %192, label %193, label %198

193:                                              ; preds = %187
  %194 = load ptr, ptr %23, align 8
  %195 = getelementptr inbounds %struct._phpdbg_breakopline_t, ptr %194, i32 0, i32 4
  %196 = load ptr, ptr %195, align 8
  %197 = icmp ne ptr %196, null
  br label %198

198:                                              ; preds = %193, %187
  %199 = phi i1 [ false, %187 ], [ %197, %193 ]
  %200 = select i1 %199, ptr @.str.31, ptr @.str
  %201 = load ptr, ptr %23, align 8
  %202 = getelementptr inbounds %struct._phpdbg_breakopline_t, ptr %201, i32 0, i32 4
  %203 = load ptr, ptr %202, align 8
  %204 = icmp ne ptr %203, null
  br i1 %204, label %205, label %209

205:                                              ; preds = %198
  %206 = load ptr, ptr %23, align 8
  %207 = getelementptr inbounds %struct._phpdbg_breakopline_t, ptr %206, i32 0, i32 4
  %208 = load ptr, ptr %207, align 8
  br label %210

209:                                              ; preds = %198
  br label %210

210:                                              ; preds = %209, %205
  %211 = phi ptr [ %208, %205 ], [ @.str, %209 ]
  %212 = load ptr, ptr %23, align 8
  %213 = getelementptr inbounds %struct._phpdbg_breakopline_t, ptr %212, i32 0, i32 8
  %214 = load i64, ptr %213, align 8
  %215 = load ptr, ptr %28, align 8
  %216 = getelementptr inbounds %struct._phpdbg_breakline_t, ptr %215, i32 0, i32 5
  %217 = load i64, ptr %216, align 8
  %218 = call i32 (i32, i32, ptr, ...) @phpdbg_print(i32 noundef 2, i32 noundef %174, ptr noundef @.str.30, i32 noundef %177, ptr noundef %188, ptr noundef %200, ptr noundef %211, i64 noundef %214, i64 noundef %217)
  br label %219

219:                                              ; preds = %210, %148
  br label %220

220:                                              ; preds = %219, %147
  %221 = load ptr, ptr %25, align 8
  %222 = getelementptr inbounds %struct._Bucket, ptr %221, i32 1
  store ptr %222, ptr %25, align 8
  br label %129

223:                                              ; preds = %129
  br label %224

224:                                              ; preds = %223, %106, %79, %54
  ret void
}