; Function Attrs: nounwind uwtable
define void @phpdbg_resolve_op_array_breaks(ptr nocapture noundef readonly %0) local_unnamed_addr #1 {
  %2 = getelementptr inbounds i8, ptr %0, i64 16
  %3 = load ptr, ptr %2, align 8
  %.not = icmp eq ptr %3, null
  br i1 %.not, label %10, label %4

4:                                                ; preds = %1
  %5 = getelementptr inbounds i8, ptr %3, i64 8
  %6 = load ptr, ptr %5, align 8
  %7 = tail call ptr @zend_hash_find(ptr noundef nonnull getelementptr inbounds (%struct._zend_phpdbg_globals, ptr @phpdbg_globals, i64 0, i32 0, i64 8), ptr noundef %6) #14
  %.not70 = icmp eq ptr %7, null
  br i1 %.not70, label %.thread, label %8

8:                                                ; preds = %4
  %9 = load ptr, ptr %7, align 8, !nonnull !4, !noundef !4
  br label %10

10:                                               ; preds = %8, %1
  %.060 = phi ptr [ %9, %8 ], [ getelementptr inbounds (%struct._zend_phpdbg_globals, ptr @phpdbg_globals, i64 0, i32 0, i64 7), %1 ]
  %11 = getelementptr inbounds i8, ptr %0, i64 8
  %12 = load ptr, ptr %11, align 8
  %13 = icmp eq ptr %12, null
  br i1 %13, label %14, label %18

14:                                               ; preds = %10
  %15 = getelementptr inbounds i8, ptr %0, i64 152
  %16 = load ptr, ptr %15, align 8
  %17 = tail call ptr @zend_hash_find(ptr noundef nonnull getelementptr inbounds (%struct._zend_phpdbg_globals, ptr @phpdbg_globals, i64 0, i32 0, i64 9), ptr noundef %16) #14
  %.not74 = icmp eq ptr %17, null
  br i1 %.not74, label %.thread, label %20

18:                                               ; preds = %10
  %19 = tail call ptr @zend_hash_find(ptr noundef nonnull %.060, ptr noundef nonnull %12) #14
  %.not72 = icmp eq ptr %19, null
  br i1 %.not72, label %.thread, label %20

20:                                               ; preds = %18, %14
  %.061.in = phi ptr [ %17, %14 ], [ %19, %18 ]
  %.061 = load ptr, ptr %.061.in, align 8, !nonnull !4, !noundef !4
  %21 = getelementptr inbounds i8, ptr %.061, i64 16
  %22 = load ptr, ptr %21, align 8
  %23 = getelementptr inbounds i8, ptr %.061, i64 24
  %24 = load i32, ptr %23, align 8
  %25 = zext i32 %24 to i64
  %26 = getelementptr inbounds %struct._Bucket, ptr %22, i64 %25
  %27 = getelementptr inbounds i8, ptr %.061, i64 8
  %28 = load i32, ptr %27, align 8
  %29 = and i32 %28, 4
  %.not76 = icmp eq i32 %29, 0
  tail call void @llvm.assume(i1 %.not76)
  %.not7795 = icmp eq i32 %24, 0
  br i1 %.not7795, label %.thread, label %.lr.ph

.lr.ph:                                           ; preds = %20, %50
  %.05896 = phi ptr [ %51, %50 ], [ %22, %20 ]
  %30 = getelementptr inbounds i8, ptr %.05896, i64 8
  %31 = load i8, ptr %30, align 8
  %32 = icmp eq i8 %31, 0
  br i1 %32, label %50, label %33

33:                                               ; preds = %.lr.ph
  %34 = load ptr, ptr %.05896, align 8
  %35 = tail call i32 @phpdbg_resolve_op_array_break(ptr noundef %34, ptr noundef %0), !range !5
  %36 = icmp eq i32 %35, 0
  br i1 %36, label %.thread91, label %50

.thread91:                                        ; preds = %33
  tail call void @zend_hash_internal_pointer_end_ex(ptr noundef nonnull getelementptr inbounds (%struct._zend_phpdbg_globals, ptr @phpdbg_globals, i64 0, i32 0, i64 3), ptr noundef nonnull getelementptr inbounds (%struct._zend_phpdbg_globals, ptr @phpdbg_globals, i64 0, i32 0, i64 3, i32 7)) #14
  %37 = tail call ptr @zend_hash_get_current_data_ex(ptr noundef nonnull getelementptr inbounds (%struct._zend_phpdbg_globals, ptr @phpdbg_globals, i64 0, i32 0, i64 3), ptr noundef nonnull getelementptr inbounds (%struct._zend_phpdbg_globals, ptr @phpdbg_globals, i64 0, i32 0, i64 3, i32 7)) #14
  %.not78 = icmp ne ptr %37, null
  tail call void @llvm.assume(i1 %.not78)
  %38 = load ptr, ptr %37, align 8, !nonnull !4, !noundef !4
  %39 = load i32, ptr getelementptr inbounds (%struct._zend_phpdbg_globals, ptr @phpdbg_globals, i64 0, i32 39, i64 1), align 4
  %40 = load i32, ptr %38, align 8
  %41 = getelementptr inbounds i8, ptr %34, i64 40
  %42 = load ptr, ptr %41, align 8
  %.not79 = icmp eq ptr %42, null
  %spec.select = select i1 %.not79, ptr @.str, ptr %42
  %.phi.trans.insert = getelementptr inbounds i8, ptr %34, i64 24
  %.pre = load ptr, ptr %.phi.trans.insert, align 8
  %.fr = freeze ptr %.pre
  %.not94 = icmp eq ptr %.fr, null
  %43 = or i1 %.not79, %.not94
  %44 = select i1 %43, ptr @.str, ptr @.str.31
  %.not81 = icmp eq ptr %.fr, null
  %spec.select82 = select i1 %.not81, ptr @.str, ptr %.fr
  %45 = getelementptr inbounds i8, ptr %34, i64 56
  %46 = load i64, ptr %45, align 8
  %47 = getelementptr inbounds i8, ptr %38, i64 32
  %48 = load i64, ptr %47, align 8
  %49 = tail call i32 (i32, i32, ptr, ...) @phpdbg_print(i32 noundef 2, i32 noundef %39, ptr noundef nonnull @.str.30, i32 noundef %40, ptr noundef nonnull %spec.select, ptr noundef nonnull %44, ptr noundef nonnull %spec.select82, i64 noundef %46, i64 noundef %48) #14
  br label %50

50:                                               ; preds = %33, %.thread91, %.lr.ph
  %51 = getelementptr inbounds i8, ptr %.05896, i64 32
  %.not77 = icmp eq ptr %51, %26
  br i1 %.not77, label %.thread, label %.lr.ph

.thread:                                          ; preds = %50, %20, %18, %14, %4
  ret void
}